target datalayout = "e-m:e-p270:32:32-p271:32:32-p272:64:64-i64:64-i128:128-f80:128-n8:16:32:64-S128"
target triple = "x86_64-unknown-linux-gnu"

%"class.icu_75::RuleBasedBreakIterator" = type <{ %"class.icu_75::BreakIterator.base", i8, %struct.UText, ptr, i32, i32, i32, [4 x i8], ptr, ptr, ptr, ptr, i32, [4 x i8], ptr, %"class.icu_75::UCharCharacterIterator", i8, [7 x i8], ptr, i8, [7 x i8] }>
%"class.icu_75::BreakIterator.base" = type <{ %"class.icu_75::UObject", [157 x i8], [157 x i8], [157 x i8] }>
%"class.icu_75::UObject" = type { ptr }
%struct.UText = type { i32, i32, i32, i32, i64, i32, i32, i64, i32, i32, ptr, ptr, ptr, ptr, ptr, ptr, ptr, ptr, i64, i32, i32, i64, i32, i32 }
%"class.icu_75::UCharCharacterIterator" = type { %"class.icu_75::CharacterIterator", ptr }
%"class.icu_75::CharacterIterator" = type { %"class.icu_75::ForwardCharacterIterator", i32, i32, i32, i32 }
%"class.icu_75::ForwardCharacterIterator" = type { %"class.icu_75::UObject" }
%"class.icu_75::RBBIDataWrapper" = type <{ ptr, ptr, ptr, ptr, ptr, i32, [4 x i8], ptr, %"struct.std::atomic", [4 x i8], ptr, %"class.icu_75::UnicodeString", i8, [7 x i8] }>
%"struct.std::atomic" = type { %"struct.std::__atomic_base" }
%"struct.std::__atomic_base" = type { i32 }
%"class.icu_75::UnicodeString" = type { %"class.icu_75::Replaceable", %"union.icu_75::UnicodeString::StackBufferOrFields" }
%"class.icu_75::Replaceable" = type { %"class.icu_75::UObject" }
%"union.icu_75::UnicodeString::StackBufferOrFields" = type { %struct.anon.0, [32 x i8] }
%struct.anon.0 = type { i16, i32, i32, ptr }
%"struct.icu_75::RBBIStateTable" = type { i32, i32, i32, i32, i32, [1 x i8] }
%"struct.icu_75::RBBIDataHeader" = type { i32, [4 x i8], i32, i32, i32, i32, i32, i32, i32, i32, i32, i32, i32, i32, [6 x i32] }

; Function Attrs: mustprogress nounwind uwtable
define internal noundef signext i8 @_ZL9U_FAILURE10UErrorCode(i32 noundef %code) #0 {
entry:
  %code.addr = alloca i32, align 4
  store i32 %code, ptr %code.addr, align 4
  %0 = load i32, ptr %code.addr, align 4
  %cmp = icmp sgt i32 %0, 0
  %conv = zext i1 %cmp to i8
  ret i8 %conv
}

; Function Attrs: mustprogress uwtable
define void @_ZN6icu_7522RuleBasedBreakIteratorC2EPKhjR10UErrorCode(ptr noundef nonnull align 8 dereferenceable(745) %this, ptr noundef %compiledRules, i32 noundef %ruleLength, ptr noundef nonnull align 4 dereferenceable(4) %status) unnamed_addr #1 align 2 personality ptr @__gxx_personality_v0 {
entry:
  %this.addr = alloca ptr, align 8
  %compiledRules.addr = alloca ptr, align 8
  %ruleLength.addr = alloca i32, align 4
  %status.addr = alloca ptr, align 8
  %exn.slot = alloca ptr, align 8
  %ehselector.slot = alloca i32, align 4
  %data = alloca ptr, align 8
  %saved-rvalue = alloca ptr, align 8
  %cleanup.cond = alloca i1, align 1
  store ptr %this, ptr %this.addr, align 8
  store ptr %compiledRules, ptr %compiledRules.addr, align 8
  store i32 %ruleLength, ptr %ruleLength.addr, align 4
  store ptr %status, ptr %status.addr, align 8
  %this1 = load ptr, ptr %this.addr, align 8
  %0 = load ptr, ptr %status.addr, align 8
  call void @_ZN6icu_7522RuleBasedBreakIteratorC2EP10UErrorCode(ptr noundef nonnull align 8 dereferenceable(745) %this1, ptr noundef %0)
  %1 = load ptr, ptr %status.addr, align 8
  %2 = load i32, ptr %1, align 4
  %call = invoke noundef signext i8 @_ZL9U_FAILURE10UErrorCode(i32 noundef %2)
          to label %invoke.cont unwind label %lpad

invoke.cont:                                      ; preds = %entry
  %tobool = icmp ne i8 %call, 0
  br i1 %tobool, label %if.then, label %if.end

if.then:                                          ; preds = %invoke.cont
  br label %if.end33

lpad:                                             ; preds = %if.then22, %new.cont, %entry
  %3 = landingpad { ptr, i32 }
          cleanup
  %4 = extractvalue { ptr, i32 } %3, 0
  store ptr %4, ptr %exn.slot, align 8
  %5 = extractvalue { ptr, i32 } %3, 1
  store i32 %5, ptr %ehselector.slot, align 4
  br label %ehcleanup

if.end:                                           ; preds = %invoke.cont
  %6 = load ptr, ptr %compiledRules.addr, align 8
  %cmp = icmp eq ptr %6, null
  br i1 %cmp, label %if.then3, label %lor.lhs.false

lor.lhs.false:                                    ; preds = %if.end
  %7 = load i32, ptr %ruleLength.addr, align 4
  %conv = zext i32 %7 to i64
  %cmp2 = icmp ult i64 %conv, 80
  br i1 %cmp2, label %if.then3, label %if.end4

if.then3:                                         ; preds = %lor.lhs.false, %if.end
  %8 = load ptr, ptr %status.addr, align 8
  store i32 1, ptr %8, align 4
  br label %if.end33

if.end4:                                          ; preds = %lor.lhs.false
  %9 = load ptr, ptr %compiledRules.addr, align 8
  store ptr %9, ptr %data, align 8
  %10 = load ptr, ptr %data, align 8
  %fLength = getelementptr inbounds %"struct.icu_75::RBBIDataHeader", ptr %10, i32 0, i32 2
  %11 = load i32, ptr %fLength, align 4
  %12 = load i32, ptr %ruleLength.addr, align 4
  %cmp5 = icmp ugt i32 %11, %12
  br i1 %cmp5, label %if.then6, label %if.end7

if.then6:                                         ; preds = %if.end4
  %13 = load ptr, ptr %status.addr, align 8
  store i32 1, ptr %13, align 4
  br label %if.end33

if.end7:                                          ; preds = %if.end4
  %call8 = call noundef ptr @_ZN6icu_757UMemorynwEm(i64 noundef 144) #6
  %new.isnull = icmp eq ptr %call8, null
  store i1 false, ptr %cleanup.cond, align 1
  br i1 %new.isnull, label %new.cont, label %new.notnull

new.notnull:                                      ; preds = %if.end7
  store ptr %call8, ptr %saved-rvalue, align 8
  store i1 true, ptr %cleanup.cond, align 1
  %14 = load ptr, ptr %data, align 8
  %15 = load ptr, ptr %status.addr, align 8
  invoke void @_ZN6icu_7515RBBIDataWrapperC1EPKNS_14RBBIDataHeaderENS0_10EDontAdoptER10UErrorCode(ptr noundef nonnull align 8 dereferenceable(137) %call8, ptr noundef %14, i32 noundef 0, ptr noundef nonnull align 4 dereferenceable(4) %15)
          to label %invoke.cont10 unwind label %lpad9

invoke.cont10:                                    ; preds = %new.notnull
  br label %new.cont

new.cont:                                         ; preds = %invoke.cont10, %if.end7
  %16 = phi ptr [ %call8, %invoke.cont10 ], [ null, %if.end7 ]
  %fData = getelementptr inbounds %"class.icu_75::RuleBasedBreakIterator", ptr %this1, i32 0, i32 3
  store ptr %16, ptr %fData, align 8
  %17 = load ptr, ptr %status.addr, align 8
  %18 = load i32, ptr %17, align 4
  %call12 = invoke noundef signext i8 @_ZL9U_FAILURE10UErrorCode(i32 noundef %18)
          to label %invoke.cont11 unwind label %lpad

invoke.cont11:                                    ; preds = %new.cont
  %tobool13 = icmp ne i8 %call12, 0
  br i1 %tobool13, label %if.then14, label %if.end15

if.then14:                                        ; preds = %invoke.cont11
  br label %if.end33

lpad9:                                            ; preds = %new.notnull
  %19 = landingpad { ptr, i32 }
          cleanup
  %20 = extractvalue { ptr, i32 } %19, 0
  store ptr %20, ptr %exn.slot, align 8
  %21 = extractvalue { ptr, i32 } %19, 1
  store i32 %21, ptr %ehselector.slot, align 4
  %cleanup.is_active = load i1, ptr %cleanup.cond, align 1
  br i1 %cleanup.is_active, label %cleanup.action, label %cleanup.done

cleanup.action:                                   ; preds = %lpad9
  %22 = load ptr, ptr %saved-rvalue, align 8
  call void @_ZN6icu_757UMemorydlEPv(ptr noundef %22) #6
  br label %cleanup.done

cleanup.done:                                     ; preds = %cleanup.action, %lpad9
  br label %ehcleanup

if.end15:                                         ; preds = %invoke.cont11
  %fData16 = getelementptr inbounds %"class.icu_75::RuleBasedBreakIterator", ptr %this1, i32 0, i32 3
  %23 = load ptr, ptr %fData16, align 8
  %cmp17 = icmp eq ptr %23, null
  br i1 %cmp17, label %if.then18, label %if.end19

if.then18:                                        ; preds = %if.end15
  %24 = load ptr, ptr %status.addr, align 8
  store i32 7, ptr %24, align 4
  br label %if.end33

if.end19:                                         ; preds = %if.end15
  %fData20 = getelementptr inbounds %"class.icu_75::RuleBasedBreakIterator", ptr %this1, i32 0, i32 3
  %25 = load ptr, ptr %fData20, align 8
  %fForwardTable = getelementptr inbounds %"class.icu_75::RBBIDataWrapper", ptr %25, i32 0, i32 1
  %26 = load ptr, ptr %fForwardTable, align 8
  %fLookAheadResultsSize = getelementptr inbounds %"struct.icu_75::RBBIStateTable", ptr %26, i32 0, i32 3
  %27 = load i32, ptr %fLookAheadResultsSize, align 4
  %cmp21 = icmp ugt i32 %27, 0
  br i1 %cmp21, label %if.then22, label %if.end33

if.then22:                                        ; preds = %if.end19
  %fData23 = getelementptr inbounds %"class.icu_75::RuleBasedBreakIterator", ptr %this1, i32 0, i32 3
  %28 = load ptr, ptr %fData23, align 8
  %fForwardTable24 = getelementptr inbounds %"class.icu_75::RBBIDataWrapper", ptr %28, i32 0, i32 1
  %29 = load ptr, ptr %fForwardTable24, align 8
  %fLookAheadResultsSize25 = getelementptr inbounds %"struct.icu_75::RBBIStateTable", ptr %29, i32 0, i32 3
  %30 = load i32, ptr %fLookAheadResultsSize25, align 4
  %conv26 = zext i32 %30 to i64
  %mul = mul i64 %conv26, 4
  %call28 = invoke noalias ptr @uprv_malloc_75(i64 noundef %mul) #7
          to label %invoke.cont27 unwind label %lpad

invoke.cont27:                                    ; preds = %if.then22
  %fLookAheadMatches = getelementptr inbounds %"class.icu_75::RuleBasedBreakIterator", ptr %this1, i32 0, i32 18
  store ptr %call28, ptr %fLookAheadMatches, align 8
  %fLookAheadMatches29 = getelementptr inbounds %"class.icu_75::RuleBasedBreakIterator", ptr %this1, i32 0, i32 18
  %31 = load ptr, ptr %fLookAheadMatches29, align 8
  %cmp30 = icmp eq ptr %31, null
  br i1 %cmp30, label %if.then31, label %if.end32

if.then31:                                        ; preds = %invoke.cont27
  %32 = load ptr, ptr %status.addr, align 8
  store i32 7, ptr %32, align 4
  br label %if.end33

if.end32:                                         ; preds = %invoke.cont27
  br label %if.end33

if.end33:                                         ; preds = %if.end32, %if.then31, %if.end19, %if.then18, %if.then14, %if.then6, %if.then3, %if.then
  ret void

ehcleanup:                                        ; preds = %cleanup.done, %lpad
  call void @_ZN6icu_7522RuleBasedBreakIteratorD2Ev(ptr noundef nonnull align 8 dereferenceable(745) %this1) #6
  br label %eh.resume

eh.resume:                                        ; preds = %ehcleanup
  %exn = load ptr, ptr %exn.slot, align 8
  %sel = load i32, ptr %ehselector.slot, align 4
  %lpad.val = insertvalue { ptr, i32 } poison, ptr %exn, 0
  %lpad.val34 = insertvalue { ptr, i32 } %lpad.val, i32 %sel, 1
  resume { ptr, i32 } %lpad.val34
}