; Function Attrs: mustprogress uwtable
define void @_ZN6icu_7522RuleBasedBreakIteratorC2EPKhjR10UErrorCode(ptr noundef nonnull align 8 dereferenceable(745) %this, ptr noundef %compiledRules, i32 noundef %ruleLength, ptr noundef nonnull align 4 dereferenceable(4) %status) unnamed_addr #1 align 2 personality ptr @__gxx_personality_v0 {
entry:
  tail call void @_ZN6icu_7522RuleBasedBreakIteratorC2EP10UErrorCode(ptr noundef nonnull align 8 dereferenceable(745) %this, ptr noundef nonnull %status)
  %0 = load i32, ptr %status, align 4
  %cmp.i = icmp slt i32 %0, 1
  br i1 %cmp.i, label %if.end, label %if.end33

lpad:                                             ; preds = %if.then22
  %1 = landingpad { ptr, i32 }
          cleanup
  br label %ehcleanup

if.end:                                           ; preds = %entry
  %cmp = icmp eq ptr %compiledRules, null
  %cmp2 = icmp ult i32 %ruleLength, 80
  %or.cond = or i1 %cmp, %cmp2
  br i1 %or.cond, label %if.end33.sink.split, label %if.end4

if.end4:                                          ; preds = %if.end
  %fLength = getelementptr inbounds i8, ptr %compiledRules, i64 8
  %2 = load i32, ptr %fLength, align 4
  %cmp5 = icmp ugt i32 %2, %ruleLength
  br i1 %cmp5, label %if.end33.sink.split, label %if.end7

if.end7:                                          ; preds = %if.end4
  %call8 = tail call noundef ptr @_ZN6icu_757UMemorynwEm(i64 noundef 144) #15
  %new.isnull = icmp eq ptr %call8, null
  br i1 %new.isnull, label %new.cont.thread, label %new.notnull

new.notnull:                                      ; preds = %if.end7
  invoke void @_ZN6icu_7515RBBIDataWrapperC1EPKNS_14RBBIDataHeaderENS0_10EDontAdoptER10UErrorCode(ptr noundef nonnull align 8 dereferenceable(137) %call8, ptr noundef nonnull %compiledRules, i32 noundef 0, ptr noundef nonnull align 4 dereferenceable(4) %status)
          to label %new.cont unwind label %lpad9

new.cont:                                         ; preds = %new.notnull
  %fData = getelementptr inbounds i8, ptr %this, i64 624
  store ptr %call8, ptr %fData, align 8
  %3 = load i32, ptr %status, align 4
  %cmp.i13 = icmp slt i32 %3, 1
  br i1 %cmp.i13, label %if.end19, label %if.end33

new.cont.thread:                                  ; preds = %if.end7
  %fData15 = getelementptr inbounds i8, ptr %this, i64 624
  store ptr null, ptr %fData15, align 8
  %4 = load i32, ptr %status, align 4
  %cmp.i1316 = icmp slt i32 %4, 1
  br i1 %cmp.i1316, label %if.end33.sink.split, label %if.end33

lpad9:                                            ; preds = %new.notnull
  %5 = landingpad { ptr, i32 }
          cleanup
  tail call void @_ZN6icu_757UMemorydlEPv(ptr noundef nonnull %call8) #15
  br label %ehcleanup

if.end19:                                         ; preds = %new.cont
  %fForwardTable = getelementptr inbounds i8, ptr %call8, i64 8
  %6 = load ptr, ptr %fForwardTable, align 8
  %fLookAheadResultsSize = getelementptr inbounds i8, ptr %6, i64 12
  %7 = load i32, ptr %fLookAheadResultsSize, align 4
  %cmp21.not = icmp eq i32 %7, 0
  br i1 %cmp21.not, label %if.end33, label %if.then22

if.then22:                                        ; preds = %if.end19
  %conv26 = zext i32 %7 to i64
  %mul = shl nuw nsw i64 %conv26, 2
  %call28 = invoke noalias ptr @uprv_malloc_75(i64 noundef %mul) #16
          to label %invoke.cont27 unwind label %lpad

invoke.cont27:                                    ; preds = %if.then22
  %fLookAheadMatches = getelementptr inbounds i8, ptr %this, i64 736
  store ptr %call28, ptr %fLookAheadMatches, align 8
  %cmp30 = icmp eq ptr %call28, null
  br i1 %cmp30, label %if.end33.sink.split, label %if.end33

if.end33.sink.split:                              ; preds = %invoke.cont27, %new.cont.thread, %if.end4, %if.end
  %.sink = phi i32 [ 1, %if.end ], [ 1, %if.end4 ], [ 7, %new.cont.thread ], [ 7, %invoke.cont27 ]
  store i32 %.sink, ptr %status, align 4
  br label %if.end33

if.end33:                                         ; preds = %if.end33.sink.split, %new.cont.thread, %invoke.cont27, %new.cont, %entry, %if.end19
  ret void

ehcleanup:                                        ; preds = %lpad9, %lpad
  %.pn = phi { ptr, i32 } [ %1, %lpad ], [ %5, %lpad9 ]
  tail call void @_ZN6icu_7522RuleBasedBreakIteratorD2Ev(ptr noundef nonnull align 8 dereferenceable(745) %this) #15
  resume { ptr, i32 } %.pn
}